Certificate:
    Data:
        Version: 3 (0x2)
        Serial Number: 3 (0x3)
    Signature Algorithm: sha256WithRSAEncryption
        Issuer: C=FR, ST=RE, L=SaintJoseph, O=GDNA, OU=sys, CN=GDNA/name=EasyRSA/emailAddress=contact@gdna.re
        Validity
            Not Before: Dec 19 09:14:55 2016 GMT
            Not After : Dec 17 09:14:55 2026 GMT
        Subject: C=FR, ST=RE, L=SaintJoseph, O=GDNA, OU=sys, CN=client2/name=EasyRSA/emailAddress=contact@gdna.re
        Subject Public Key Info:
            Public Key Algorithm: rsaEncryption
                Public-Key: (2048 bit)
                Modulus:
                    00:eb:0b:ae:3d:9f:fe:65:b8:51:81:81:e5:fd:ec:
                    2d:ca:98:9a:a6:62:a4:12:b6:e3:a7:df:3b:e4:9c:
                    65:80:dd:b6:ee:7f:43:8c:d7:2b:05:63:45:9b:37:
                    e0:66:45:f8:19:52:64:5f:65:ad:72:ec:43:74:46:
                    fc:c2:66:92:fb:9b:13:a9:02:0a:51:f7:f4:4e:f1:
                    3f:9e:4a:b1:ef:f9:34:52:c5:e3:bf:2e:04:ca:4d:
                    e3:85:9e:0c:cc:d1:bb:ce:2f:f3:0b:c7:11:68:57:
                    a7:a6:9d:a6:4b:ce:72:d2:e6:66:dc:24:78:f8:06:
                    98:4c:06:14:1c:d4:31:94:82:6e:19:70:6c:fa:36:
                    89:49:d2:6a:29:e4:5d:f8:50:49:c3:ee:5c:83:ae:
                    e8:d8:56:b2:aa:5b:ed:37:1f:d6:8f:f3:20:a8:86:
                    bb:ac:2c:2f:8c:fa:f7:7d:be:7f:b4:be:6a:d4:c3:
                    5d:8f:86:ca:fe:63:0a:a2:68:75:22:2a:20:4c:af:
                    c1:52:da:79:53:15:cb:b8:e9:84:94:2f:3c:c1:39:
                    03:8e:dd:61:dd:47:ad:eb:67:4e:6f:ae:f1:23:5d:
                    4d:a5:99:36:28:e9:c7:e3:6f:0d:f6:02:ad:14:c2:
                    14:52:50:3e:c2:1d:7d:32:09:5e:93:27:32:37:dd:
                    0a:8b
                Exponent: 65537 (0x10001)
        X509v3 extensions:
            X509v3 Basic Constraints: 
                CA:FALSE
            Netscape Comment: 
                Easy-RSA Generated Certificate
            X509v3 Subject Key Identifier: 
                E8:A1:BD:F6:28:34:82:D2:35:72:D6:AB:EF:E7:F5:B4:02:57:8E:29
            X509v3 Authority Key Identifier: 
                keyid:FF:6B:43:86:51:2F:26:D0:29:00:12:12:BA:D5:51:EA:86:C9:68:FE
                DirName:/C=FR/ST=RE/L=SaintJoseph/O=GDNA/OU=sys/CN=GDNA/name=EasyRSA/emailAddress=contact@gdna.re
                serial:EA:68:69:21:5F:01:E4:2D

            X509v3 Extended Key Usage: 
                TLS Web Client Authentication
            X509v3 Key Usage: 
                Digital Signature
            X509v3 Subject Alternative Name: 
                DNS:client2
    Signature Algorithm: sha256WithRSAEncryption
         2a:55:82:9e:00:57:8e:e1:5c:6c:9c:45:20:f4:b5:b8:c7:dd:
         ec:bb:b0:41:a0:ac:20:c5:a1:9e:b7:1d:ba:36:63:92:69:d2:
         dc:40:f3:35:c3:f3:b0:33:f7:8e:b2:f6:3f:f8:40:14:b4:d5:
         e7:79:af:66:a7:ec:8b:4d:95:f2:2e:17:70:e6:ec:80:7d:02:
         5d:b0:0b:64:2e:52:5c:b9:32:19:1d:60:77:77:87:02:bf:9a:
         56:61:b3:15:16:18:e6:4b:54:95:f5:43:e6:4c:ab:45:c5:0b:
         73:26:71:c3:1f:9a:8b:81:73:0a:9e:bc:2f:b6:57:86:b8:dd:
         33:5d:24:1f:4e:be:97:a9:43:ba:68:ad:e2:0e:7d:b1:39:80:
         8f:ef:59:24:bd:62:14:95:21:b1:d2:e9:b9:00:75:8c:91:90:
         f6:21:45:fc:e3:74:bd:5f:f1:0b:61:6c:06:02:dc:a4:ba:ce:
         94:88:85:23:2e:17:9d:f2:8c:4a:b5:b1:cd:d5:c3:db:ad:15:
         6f:b9:ab:43:62:14:aa:9c:5f:8d:b7:24:29:36:04:90:7a:62:
         37:dd:4e:b6:f1:ab:eb:83:15:a2:b0:31:e7:cf:a9:be:a3:10:
         6f:74:e4:f5:0c:1a:c0:9f:ac:be:f6:6b:47:aa:6c:59:d2:a1:
         66:af:e1:30
-----BEGIN CERTIFICATE-----
MIIE9zCCA9+gAwIBAgIBAzANBgkqhkiG9w0BAQsFADCBjjELMAkGA1UEBhMCRlIx
CzAJBgNVBAgTAlJFMRQwEgYDVQQHEwtTYWludEpvc2VwaDENMAsGA1UEChMER0RO
QTEMMAoGA1UECxMDc3lzMQ0wCwYDVQQDEwRHRE5BMRAwDgYDVQQpEwdFYXN5UlNB
MR4wHAYJKoZIhvcNAQkBFg9jb250YWN0QGdkbmEucmUwHhcNMTYxMjE5MDkxNDU1
WhcNMjYxMjE3MDkxNDU1WjCBkTELMAkGA1UEBhMCRlIxCzAJBgNVBAgTAlJFMRQw
EgYDVQQHEwtTYWludEpvc2VwaDENMAsGA1UEChMER0ROQTEMMAoGA1UECxMDc3lz
MRAwDgYDVQQDEwdjbGllbnQyMRAwDgYDVQQpEwdFYXN5UlNBMR4wHAYJKoZIhvcN
AQkBFg9jb250YWN0QGdkbmEucmUwggEiMA0GCSqGSIb3DQEBAQUAA4IBDwAwggEK
AoIBAQDrC649n/5luFGBgeX97C3KmJqmYqQStuOn3zvknGWA3bbuf0OM1ysFY0Wb
N+BmRfgZUmRfZa1y7EN0RvzCZpL7mxOpAgpR9/RO8T+eSrHv+TRSxeO/LgTKTeOF
ngzM0bvOL/MLxxFoV6emnaZLznLS5mbcJHj4BphMBhQc1DGUgm4ZcGz6NolJ0mop
5F34UEnD7lyDrujYVrKqW+03H9aP8yCohrusLC+M+vd9vn+0vmrUw12Phsr+Ywqi
aHUiKiBMr8FS2nlTFcu46YSULzzBOQOO3WHdR63rZ05vrvEjXU2lmTYo6cfjbw32
Aq0UwhRSUD7CHX0yCV6TJzI33QqLAgMBAAGjggFZMIIBVTAJBgNVHRMEAjAAMC0G
CWCGSAGG+EIBDQQgFh5FYXN5LVJTQSBHZW5lcmF0ZWQgQ2VydGlmaWNhdGUwHQYD
VR0OBBYEFOihvfYoNILSNXLWq+/n9bQCV44pMIHDBgNVHSMEgbswgbiAFP9rQ4ZR
LybQKQASErrVUeqGyWj+oYGUpIGRMIGOMQswCQYDVQQGEwJGUjELMAkGA1UECBMC
UkUxFDASBgNVBAcTC1NhaW50Sm9zZXBoMQ0wCwYDVQQKEwRHRE5BMQwwCgYDVQQL
EwNzeXMxDTALBgNVBAMTBEdETkExEDAOBgNVBCkTB0Vhc3lSU0ExHjAcBgkqhkiG
9w0BCQEWD2NvbnRhY3RAZ2RuYS5yZYIJAOpoaSFfAeQtMBMGA1UdJQQMMAoGCCsG
AQUFBwMCMAsGA1UdDwQEAwIHgDASBgNVHREECzAJggdjbGllbnQyMA0GCSqGSIb3
DQEBCwUAA4IBAQAqVYKeAFeO4VxsnEUg9LW4x93su7BBoKwgxaGetx26NmOSadLc
QPM1w/OwM/eOsvY/+EAUtNXnea9mp+yLTZXyLhdw5uyAfQJdsAtkLlJcuTIZHWB3
d4cCv5pWYbMVFhjmS1SV9UPmTKtFxQtzJnHDH5qLgXMKnrwvtleGuN0zXSQfTr6X
qUO6aK3iDn2xOYCP71kkvWIUlSGx0um5AHWMkZD2IUX843S9X/ELYWwGAtykus6U
iIUjLhed8oxKtbHN1cPbrRVvuatDYhSqnF+NtyQpNgSQemI33U628avrgxWisDHn
z6m+oxBvdOT1DBrAn6y+9mtHqmxZ0qFmr+Ew
-----END CERTIFICATE-----
